; Function Attrs: nounwind sspstrong uwtable
define internal range(i64 1, 0) i64 @ossl_ocspreq_check_nonce(i64 noundef %0, i64 noundef %1) #0 {
  %3 = tail call ptr @rb_check_typeddata(i64 noundef %0, ptr noundef nonnull @ossl_ocsp_request_type) #5
  %.not = icmp eq ptr %3, null
  br i1 %.not, label %4, label %6

4:                                                ; preds = %2
  %5 = load i64, ptr @rb_eRuntimeError, align 8, !tbaa !6
  tail call void (i64, ptr, ...) @ossl_raise(i64 noundef %5, ptr noundef nonnull @.str.70) #6
  unreachable

6:                                                ; preds = %2
  %7 = tail call ptr @rb_check_typeddata(i64 noundef %1, ptr noundef nonnull @ossl_ocsp_basicresp_type) #5
  %.not7 = icmp eq ptr %7, null
  br i1 %.not7, label %8, label %10

8:                                                ; preds = %6
  %9 = load i64, ptr @rb_eRuntimeError, align 8, !tbaa !6
  tail call void (i64, ptr, ...) @ossl_raise(i64 noundef %9, ptr noundef nonnull @.str.75) #6
  unreachable

10:                                               ; preds = %6
  %11 = tail call i32 @OCSP_check_nonce(ptr noundef nonnull %3, ptr noundef nonnull %7) #5
  %12 = sext i32 %11 to i64
  %13 = shl nsw i64 %12, 1
  %14 = or disjoint i64 %13, 1
  ret i64 %14
}